; ModuleID = '49/1231.c'
source_filename = "49/1231.c"
target datalayout = "e-m:e-p270:32:32-p271:32:32-p272:64:64-i64:64-f80:128-n8:16:32:64-S128"
target triple = "x86_64-pc-linux-gnu"

@.str = private unnamed_addr constant [3 x i8] c"%c\00", align 1
@.str.1 = private unnamed_addr constant [2 x i8] c"\0A\00", align 1

; Function Attrs: noinline nounwind uwtable
define dso_local i32 @main() #0 {
  %1 = alloca i32, align 4
  %2 = alloca i32, align 4
  %3 = alloca i32, align 4
  %4 = alloca i32, align 4
  %5 = alloca i32, align 4
  %6 = alloca i32, align 4
  %7 = alloca i32, align 4
  %8 = alloca [500 x i8], align 16
  %9 = alloca i8*, align 8
  store i32 0, i32* %1, align 4
  store i32 0, i32* %6, align 4
  %10 = getelementptr inbounds [500 x i8], [500 x i8]* %8, i64 0, i64 0
  %11 = call i32 (i8*, ...) bitcast (i32 (...)* @gets to i32 (i8*, ...)*)(i8* %10)
  %12 = getelementptr inbounds [500 x i8], [500 x i8]* %8, i64 0, i64 0
  %13 = call i64 @strlen(i8* %12) #3
  %14 = trunc i64 %13 to i32
  store i32 %14, i32* %5, align 4
  store i32 2, i32* %2, align 4
  br label %15

15:                                               ; preds = %92, %0
  %16 = load i32, i32* %2, align 4
  %17 = load i32, i32* %5, align 4
  %18 = icmp sle i32 %16, %17
  br i1 %18, label %19, label %95

19:                                               ; preds = %15
  %20 = getelementptr inbounds [500 x i8], [500 x i8]* %8, i64 0, i64 0
  store i8* %20, i8** %9, align 8
  store i32 0, i32* %3, align 4
  br label %21

21:                                               ; preds = %88, %19
  %22 = load i32, i32* %3, align 4
  %23 = load i32, i32* %5, align 4
  %24 = load i32, i32* %2, align 4
  %25 = sub nsw i32 %23, %24
  %26 = icmp sle i32 %22, %25
  br i1 %26, label %27, label %91

27:                                               ; preds = %21
  %28 = load i32, i32* %3, align 4
  store i32 %28, i32* %4, align 4
  br label %29

29:                                               ; preds = %60, %27
  %30 = load i32, i32* %4, align 4
  %31 = load i32, i32* %3, align 4
  %32 = load i32, i32* %3, align 4
  %33 = add nsw i32 %31, %32
  %34 = load i32, i32* %2, align 4
  %35 = add nsw i32 %33, %34
  %36 = sdiv i32 %35, 2
  %37 = icmp slt i32 %30, %36
  br i1 %37, label %38, label %63

38:                                               ; preds = %29
  %39 = load i32, i32* %4, align 4
  %40 = sext i32 %39 to i64
  %41 = getelementptr inbounds [500 x i8], [500 x i8]* %8, i64 0, i64 %40
  %42 = load i8, i8* %41, align 1
  %43 = sext i8 %42 to i32
  %44 = load i32, i32* %3, align 4
  %45 = load i32, i32* %3, align 4
  %46 = add nsw i32 %44, %45
  %47 = load i32, i32* %2, align 4
  %48 = add nsw i32 %46, %47
  %49 = sub nsw i32 %48, 1
  %50 = load i32, i32* %4, align 4
  %51 = sub nsw i32 %49, %50
  %52 = sext i32 %51 to i64
  %53 = getelementptr inbounds [500 x i8], [500 x i8]* %8, i64 0, i64 %52
  %54 = load i8, i8* %53, align 1
  %55 = sext i8 %54 to i32
  %56 = icmp eq i32 %43, %55
  br i1 %56, label %57, label %58

57:                                               ; preds = %38
  store i32 1, i32* %6, align 4
  br label %59

58:                                               ; preds = %38
  store i32 0, i32* %6, align 4
  br label %63

59:                                               ; preds = %57
  br label %60

60:                                               ; preds = %59
  %61 = load i32, i32* %4, align 4
  %62 = add nsw i32 %61, 1
  store i32 %62, i32* %4, align 4
  br label %29

63:                                               ; preds = %58, %29
  %64 = load i32, i32* %6, align 4
  %65 = icmp eq i32 %64, 1
  br i1 %65, label %66, label %87

66:                                               ; preds = %63
  %67 = load i32, i32* %3, align 4
  store i32 %67, i32* %7, align 4
  br label %68

68:                                               ; preds = %82, %66
  %69 = load i32, i32* %7, align 4
  %70 = load i32, i32* %3, align 4
  %71 = load i32, i32* %2, align 4
  %72 = add nsw i32 %70, %71
  %73 = sub nsw i32 %72, 1
  %74 = icmp sle i32 %69, %73
  br i1 %74, label %75, label %85

75:                                               ; preds = %68
  %76 = load i32, i32* %7, align 4
  %77 = sext i32 %76 to i64
  %78 = getelementptr inbounds [500 x i8], [500 x i8]* %8, i64 0, i64 %77
  %79 = load i8, i8* %78, align 1
  %80 = sext i8 %79 to i32
  %81 = call i32 (i8*, ...) @printf(i8* getelementptr inbounds ([3 x i8], [3 x i8]* @.str, i64 0, i64 0), i32 %80)
  br label %82

82:                                               ; preds = %75
  %83 = load i32, i32* %7, align 4
  %84 = add nsw i32 %83, 1
  store i32 %84, i32* %7, align 4
  br label %68

85:                                               ; preds = %68
  %86 = call i32 (i8*, ...) @printf(i8* getelementptr inbounds ([2 x i8], [2 x i8]* @.str.1, i64 0, i64 0))
  br label %87

87:                                               ; preds = %85, %63
  br label %88

88:                                               ; preds = %87
  %89 = load i32, i32* %3, align 4
  %90 = add nsw i32 %89, 1
  store i32 %90, i32* %3, align 4
  br label %21

91:                                               ; preds = %21
  br label %92

92:                                               ; preds = %91
  %93 = load i32, i32* %2, align 4
  %94 = add nsw i32 %93, 1
  store i32 %94, i32* %2, align 4
  br label %15

95:                                               ; preds = %15
  %96 = load i32, i32* %1, align 4
  ret i32 %96
}

declare dso_local i32 @gets(...) #1

; Function Attrs: nounwind readonly
declare dso_local i64 @strlen(i8*) #2

declare dso_local i32 @printf(i8*, ...) #1


!llvm.module.flags = !{!0}
!llvm.ident = !{!1}

!0 = !{i32 1, !"wchar_size", i32 4}
!1 = !{!"clang version 10.0.0-4ubuntu1 "}
